target datalayout = "e-m:e-p270:32:32-p271:32:32-p272:64:64-i64:64-i128:128-f80:128-n8:16:32:64-S128"
target triple = "x86_64-pc-linux-gnu"

%"struct.OpenImageIO::v3_1_0::TypeDesc" = type { i8, i8, i8, i8, i32 }
%"class.std::__cxx11::basic_string" = type { %"struct.std::__cxx11::basic_string<char>::_Alloc_hider", i64, %union.anon.23 }
%"struct.std::__cxx11::basic_string<char>::_Alloc_hider" = type { ptr }
%union.anon.23 = type { i64, [8 x i8] }
%"struct.OpenImageIO::v3_1_0::ROI" = type { i32, i32, i32, i32, i32, i32, i32, i32 }
%"class.OpenImageIO::v3_1_0::ImageSpec" = type { i32, i32, i32, i32, i32, i32, i32, i32, i32, i32, i32, i32, i32, i32, i32, i32, %"struct.OpenImageIO::v3_1_0::TypeDesc", %"class.std::vector", %"class.std::vector.0", i32, i32, i8, %"class.OpenImageIO::v3_1_0::ParamValueList" }
%"class.std::vector" = type { %"struct.std::_Vector_base" }
%"struct.std::_Vector_base" = type { %"struct.std::_Vector_base<OpenImageIO::v3_1_0::TypeDesc, std::allocator<OpenImageIO::v3_1_0::TypeDesc>>::_Vector_impl" }
%"struct.std::_Vector_base<OpenImageIO::v3_1_0::TypeDesc, std::allocator<OpenImageIO::v3_1_0::TypeDesc>>::_Vector_impl" = type { %"struct.std::_Vector_base<OpenImageIO::v3_1_0::TypeDesc, std::allocator<OpenImageIO::v3_1_0::TypeDesc>>::_Vector_impl_data" }
%"struct.std::_Vector_base<OpenImageIO::v3_1_0::TypeDesc, std::allocator<OpenImageIO::v3_1_0::TypeDesc>>::_Vector_impl_data" = type { ptr, ptr, ptr }
%"class.std::vector.0" = type { %"struct.std::_Vector_base.1" }
%"struct.std::_Vector_base.1" = type { %"struct.std::_Vector_base<std::__cxx11::basic_string<char>, std::allocator<std::__cxx11::basic_string<char>>>::_Vector_impl" }
%"struct.std::_Vector_base<std::__cxx11::basic_string<char>, std::allocator<std::__cxx11::basic_string<char>>>::_Vector_impl" = type { %"struct.std::_Vector_base<std::__cxx11::basic_string<char>, std::allocator<std::__cxx11::basic_string<char>>>::_Vector_impl_data" }
%"struct.std::_Vector_base<std::__cxx11::basic_string<char>, std::allocator<std::__cxx11::basic_string<char>>>::_Vector_impl_data" = type { ptr, ptr, ptr }
%"class.OpenImageIO::v3_1_0::ParamValueList" = type { %"class.std::vector.5" }
%"class.std::vector.5" = type { %"struct.std::_Vector_base.6" }
%"struct.std::_Vector_base.6" = type { %"struct.std::_Vector_base<OpenImageIO::v3_1_0::ParamValue, std::allocator<OpenImageIO::v3_1_0::ParamValue>>::_Vector_impl" }
%"struct.std::_Vector_base<OpenImageIO::v3_1_0::ParamValue, std::allocator<OpenImageIO::v3_1_0::ParamValue>>::_Vector_impl" = type { %"struct.std::_Vector_base<OpenImageIO::v3_1_0::ParamValue, std::allocator<OpenImageIO::v3_1_0::ParamValue>>::_Vector_impl_data" }
%"struct.std::_Vector_base<OpenImageIO::v3_1_0::ParamValue, std::allocator<OpenImageIO::v3_1_0::ParamValue>>::_Vector_impl_data" = type { ptr, ptr, ptr }
%"class.OpenImageIO::v3_1_0::ImageOutput" = type { ptr, %"class.OpenImageIO::v3_1_0::ImageSpec", %"class.std::unique_ptr" }
%"class.std::unique_ptr" = type { %"struct.std::__uniq_ptr_data" }
%"struct.std::__uniq_ptr_data" = type { %"class.std::__uniq_ptr_impl" }
%"class.std::__uniq_ptr_impl" = type { %"class.std::tuple" }
%"class.std::tuple" = type { %"struct.std::_Tuple_impl" }
%"struct.std::_Tuple_impl" = type { %"struct.std::_Tuple_impl.10", %"struct.std::_Head_base.11" }
%"struct.std::_Tuple_impl.10" = type { %"struct.std::_Head_base" }
%"struct.std::_Head_base" = type { ptr }
%"struct.std::_Head_base.11" = type { ptr }
%"class.OpenImageIO::v3_1_0::term_pvt::TermOutput" = type <{ %"class.OpenImageIO::v3_1_0::ImageOutput", %"class.OpenImageIO::v3_1_0::ImageBuf", %"class.std::__cxx11::basic_string", %"class.std::__cxx11::basic_string", i8, [7 x i8] }>
%"class.OpenImageIO::v3_1_0::ImageBuf" = type { %"class.std::unique_ptr.12" }
%"class.std::unique_ptr.12" = type { %"struct.std::__uniq_ptr_data.13" }
%"struct.std::__uniq_ptr_data.13" = type { %"class.std::__uniq_ptr_impl.14" }
%"class.std::__uniq_ptr_impl.14" = type { %"class.std::tuple.15" }
%"class.std::tuple.15" = type { %"struct.std::_Tuple_impl.16" }
%"struct.std::_Tuple_impl.16" = type { %"struct.std::_Tuple_impl.17", %"struct.std::_Head_base.19" }
%"struct.std::_Tuple_impl.17" = type { %"struct.std::_Head_base.18" }
%"struct.std::_Head_base.18" = type { ptr }
%"struct.std::_Head_base.19" = type { ptr }
%"class.OpenImageIO::v3_1_0::span" = type { ptr, i64 }

@.str.8 = private unnamed_addr constant [48 x i8] c"Attempt to write too many scanlines to terminal\00", align 1

; Function Attrs: mustprogress nounwind uwtable
define linkonce_odr void @_ZNSt11char_traitsIcE6assignERcRKc(ptr noundef nonnull align 1 dereferenceable(1) %0, ptr noundef nonnull align 1 dereferenceable(1) %1) #7 comdat align 2 {
  %3 = alloca ptr, align 8
  %4 = alloca ptr, align 8
  store ptr %0, ptr %3, align 8, !tbaa !17
  store ptr %1, ptr %4, align 8, !tbaa !17
  %5 = load ptr, ptr %4, align 8, !tbaa !17
  %6 = load i8, ptr %5, align 1, !tbaa !84
  %7 = load ptr, ptr %3, align 8, !tbaa !17
  store i8 %6, ptr %7, align 1, !tbaa !84
  ret void
}

; Function Attrs: mustprogress nounwind uwtable
define available_externally noundef ptr @_ZNKSt7__cxx1112basic_stringIcSt11char_traitsIcESaIcEE7_M_dataEv(ptr noundef nonnull align 8 dereferenceable(32) %0) #7 align 2 {
  %2 = alloca ptr, align 8
  store ptr %0, ptr %2, align 8, !tbaa !18
  %3 = load ptr, ptr %2, align 8
  %4 = getelementptr inbounds nuw %"class.std::__cxx11::basic_string", ptr %3, i32 0, i32 0
  %5 = getelementptr inbounds nuw %"struct.std::__cxx11::basic_string<char>::_Alloc_hider", ptr %4, i32 0, i32 0
  %6 = load ptr, ptr %5, align 8, !tbaa !199
  ret ptr %6
}

; Function Attrs: mustprogress nounwind uwtable
define available_externally void @_ZNSt7__cxx1112basic_stringIcSt11char_traitsIcESaIcEE9_M_lengthEm(ptr noundef nonnull align 8 dereferenceable(32) %0, i64 noundef %1) #7 align 2 {
  %3 = alloca ptr, align 8
  %4 = alloca i64, align 8
  store ptr %0, ptr %3, align 8, !tbaa !18
  store i64 %1, ptr %4, align 8, !tbaa !85
  %5 = load ptr, ptr %3, align 8
  %6 = load i64, ptr %4, align 8, !tbaa !85
  %7 = getelementptr inbounds nuw %"class.std::__cxx11::basic_string", ptr %5, i32 0, i32 1
  store i64 %6, ptr %7, align 8, !tbaa !141
  ret void
}

; Function Attrs: noinline noreturn nounwind uwtable
define linkonce_odr hidden void @__clang_call_terminate(ptr noundef %0) #15 comdat {
  %2 = call ptr @__cxa_begin_catch(ptr %0) #3
  call void @_ZSt9terminatev() #27
  unreachable
}

; Function Attrs: mustprogress uwtable
define available_externally void @_ZNSt7__cxx1112basic_stringIcSt11char_traitsIcESaIcEE13_M_set_lengthEm(ptr noundef nonnull align 8 dereferenceable(32) %0, i64 noundef %1) #6 align 2 {
  %3 = alloca ptr, align 8
  %4 = alloca i64, align 8
  %5 = alloca i8, align 1
  store ptr %0, ptr %3, align 8, !tbaa !18
  store i64 %1, ptr %4, align 8, !tbaa !85
  %6 = load ptr, ptr %3, align 8
  %7 = load i64, ptr %4, align 8, !tbaa !85
  call void @_ZNSt7__cxx1112basic_stringIcSt11char_traitsIcESaIcEE9_M_lengthEm(ptr noundef nonnull align 8 dereferenceable(32) %6, i64 noundef %7)
  %8 = call noundef ptr @_ZNKSt7__cxx1112basic_stringIcSt11char_traitsIcESaIcEE7_M_dataEv(ptr noundef nonnull align 8 dereferenceable(32) %6)
  %9 = load i64, ptr %4, align 8, !tbaa !85
  %10 = getelementptr inbounds nuw i8, ptr %8, i64 %9
  call void @llvm.lifetime.start.p0(i64 1, ptr %5) #3
  store i8 0, ptr %5, align 1, !tbaa !84
  call void @_ZNSt11char_traitsIcE6assignERcRKc(ptr noundef nonnull align 1 dereferenceable(1) %10, ptr noundef nonnull align 1 dereferenceable(1) %5) #3
  call void @llvm.lifetime.end.p0(i64 1, ptr %5) #3
  ret void
}

; Function Attrs: mustprogress nounwind uwtable
define available_externally void @_ZNSt7__cxx1112basic_stringIcSt11char_traitsIcESaIcEE5clearEv(ptr noundef nonnull align 8 dereferenceable(32) %0) #7 align 2 personality ptr @__gxx_personality_v0 {
  %2 = alloca ptr, align 8
  store ptr %0, ptr %2, align 8, !tbaa !18
  %3 = load ptr, ptr %2, align 8
  invoke void @_ZNSt7__cxx1112basic_stringIcSt11char_traitsIcESaIcEE13_M_set_lengthEm(ptr noundef nonnull align 8 dereferenceable(32) %3, i64 noundef 0)
          to label %4 unwind label %5

4:                                                ; preds = %1
  ret void

5:                                                ; preds = %1
  %6 = landingpad { ptr, i32 }
          catch ptr null
  %7 = extractvalue { ptr, i32 } %6, 0
  call void @__clang_call_terminate(ptr %7) #27
  unreachable
}

; Function Attrs: mustprogress uwtable
define linkonce_odr hidden void @_ZN11OpenImageIO6v3_1_08term_pvt10TermOutput4initEv(ptr noundef nonnull align 8 dereferenceable(272) %0) #6 comdat align 2 {
  %2 = alloca ptr, align 8
  store ptr %0, ptr %2, align 8, !tbaa !8
  %3 = load ptr, ptr %2, align 8
  %4 = getelementptr inbounds nuw %"class.OpenImageIO::v3_1_0::term_pvt::TermOutput", ptr %3, i32 0, i32 1
  call void @_ZN11OpenImageIO6v3_1_08ImageBuf5clearEv(ptr noundef nonnull align 8 dereferenceable(16) %4)
  %5 = getelementptr inbounds nuw %"class.OpenImageIO::v3_1_0::term_pvt::TermOutput", ptr %3, i32 0, i32 3
  call void @_ZNSt7__cxx1112basic_stringIcSt11char_traitsIcESaIcEE5clearEv(ptr noundef nonnull align 8 dereferenceable(32) %5) #3
  ret void
}

; Function Attrs: mustprogress nounwind uwtable
define linkonce_odr hidden noundef i32 @_ZNK11OpenImageIO6v3_1_03ROI5depthEv(ptr noundef nonnull align 4 dereferenceable(32) %0) #7 comdat align 2 {
  %2 = alloca ptr, align 8
  store ptr %0, ptr %2, align 8, !tbaa !68
  %3 = load ptr, ptr %2, align 8
  %4 = getelementptr inbounds nuw %"struct.OpenImageIO::v3_1_0::ROI", ptr %3, i32 0, i32 5
  %5 = load i32, ptr %4, align 4, !tbaa !76
  %6 = getelementptr inbounds nuw %"struct.OpenImageIO::v3_1_0::ROI", ptr %3, i32 0, i32 4
  %7 = load i32, ptr %6, align 4, !tbaa !75
  %8 = sub nsw i32 %5, %7
  ret i32 %8
}

; Function Attrs: mustprogress nounwind uwtable
define linkonce_odr hidden noundef i32 @_ZNK11OpenImageIO6v3_1_03ROI6heightEv(ptr noundef nonnull align 4 dereferenceable(32) %0) #7 comdat align 2 {
  %2 = alloca ptr, align 8
  store ptr %0, ptr %2, align 8, !tbaa !68
  %3 = load ptr, ptr %2, align 8
  %4 = getelementptr inbounds nuw %"struct.OpenImageIO::v3_1_0::ROI", ptr %3, i32 0, i32 3
  %5 = load i32, ptr %4, align 4, !tbaa !74
  %6 = getelementptr inbounds nuw %"struct.OpenImageIO::v3_1_0::ROI", ptr %3, i32 0, i32 2
  %7 = load i32, ptr %6, align 4, !tbaa !73
  %8 = sub nsw i32 %5, %7
  ret i32 %8
}

; Function Attrs: mustprogress nounwind uwtable
define linkonce_odr hidden noundef i32 @_ZNK11OpenImageIO6v3_1_03ROI5widthEv(ptr noundef nonnull align 4 dereferenceable(32) %0) #7 comdat align 2 {
  %2 = alloca ptr, align 8
  store ptr %0, ptr %2, align 8, !tbaa !68
  %3 = load ptr, ptr %2, align 8
  %4 = getelementptr inbounds nuw %"struct.OpenImageIO::v3_1_0::ROI", ptr %3, i32 0, i32 1
  %5 = load i32, ptr %4, align 4, !tbaa !72
  %6 = getelementptr inbounds nuw %"struct.OpenImageIO::v3_1_0::ROI", ptr %3, i32 0, i32 0
  %7 = load i32, ptr %6, align 4, !tbaa !70
  %8 = sub nsw i32 %5, %7
  ret i32 %8
}

; Function Attrs: mustprogress nounwind uwtable
define linkonce_odr hidden void @_ZN11OpenImageIO6v3_1_03ROIC2Eiiiiiiii(ptr noundef nonnull align 4 dereferenceable(32) %0, i32 noundef %1, i32 noundef %2, i32 noundef %3, i32 noundef %4, i32 noundef %5, i32 noundef %6, i32 noundef %7, i32 noundef %8) unnamed_addr #7 comdat align 2 {
  %10 = alloca ptr, align 8
  %11 = alloca i32, align 4
  %12 = alloca i32, align 4
  %13 = alloca i32, align 4
  %14 = alloca i32, align 4
  %15 = alloca i32, align 4
  %16 = alloca i32, align 4
  %17 = alloca i32, align 4
  %18 = alloca i32, align 4
  store ptr %0, ptr %10, align 8, !tbaa !68
  store i32 %1, ptr %11, align 4, !tbaa !24
  store i32 %2, ptr %12, align 4, !tbaa !24
  store i32 %3, ptr %13, align 4, !tbaa !24
  store i32 %4, ptr %14, align 4, !tbaa !24
  store i32 %5, ptr %15, align 4, !tbaa !24
  store i32 %6, ptr %16, align 4, !tbaa !24
  store i32 %7, ptr %17, align 4, !tbaa !24
  store i32 %8, ptr %18, align 4, !tbaa !24
  %19 = load ptr, ptr %10, align 8
  %20 = getelementptr inbounds nuw %"struct.OpenImageIO::v3_1_0::ROI", ptr %19, i32 0, i32 0
  %21 = load i32, ptr %11, align 4, !tbaa !24
  store i32 %21, ptr %20, align 4, !tbaa !70
  %22 = getelementptr inbounds nuw %"struct.OpenImageIO::v3_1_0::ROI", ptr %19, i32 0, i32 1
  %23 = load i32, ptr %12, align 4, !tbaa !24
  store i32 %23, ptr %22, align 4, !tbaa !72
  %24 = getelementptr inbounds nuw %"struct.OpenImageIO::v3_1_0::ROI", ptr %19, i32 0, i32 2
  %25 = load i32, ptr %13, align 4, !tbaa !24
  store i32 %25, ptr %24, align 4, !tbaa !73
  %26 = getelementptr inbounds nuw %"struct.OpenImageIO::v3_1_0::ROI", ptr %19, i32 0, i32 3
  %27 = load i32, ptr %14, align 4, !tbaa !24
  store i32 %27, ptr %26, align 4, !tbaa !74
  %28 = getelementptr inbounds nuw %"struct.OpenImageIO::v3_1_0::ROI", ptr %19, i32 0, i32 4
  %29 = load i32, ptr %15, align 4, !tbaa !24
  store i32 %29, ptr %28, align 4, !tbaa !75
  %30 = getelementptr inbounds nuw %"struct.OpenImageIO::v3_1_0::ROI", ptr %19, i32 0, i32 5
  %31 = load i32, ptr %16, align 4, !tbaa !24
  store i32 %31, ptr %30, align 4, !tbaa !76
  %32 = getelementptr inbounds nuw %"struct.OpenImageIO::v3_1_0::ROI", ptr %19, i32 0, i32 6
  %33 = load i32, ptr %17, align 4, !tbaa !24
  store i32 %33, ptr %32, align 4, !tbaa !77
  %34 = getelementptr inbounds nuw %"struct.OpenImageIO::v3_1_0::ROI", ptr %19, i32 0, i32 7
  %35 = load i32, ptr %18, align 4, !tbaa !24
  store i32 %35, ptr %34, align 4, !tbaa !78
  ret void
}

; Function Attrs: mustprogress uwtable
define hidden noundef zeroext i1 @_ZN11OpenImageIO6v3_1_08term_pvt10TermOutput5closeEv(ptr noundef nonnull align 8 dereferenceable(272) %0) unnamed_addr #6 align 2 {
  %2 = alloca i1, align 1
  %3 = alloca ptr, align 8
  store ptr %0, ptr %3, align 8, !tbaa !8
  %4 = load ptr, ptr %3, align 8
  %5 = getelementptr inbounds nuw %"class.OpenImageIO::v3_1_0::term_pvt::TermOutput", ptr %4, i32 0, i32 1
  %6 = call noundef zeroext i1 @_ZNK11OpenImageIO6v3_1_08ImageBuf11initializedEv(ptr noundef nonnull align 8 dereferenceable(16) %5)
  br i1 %6, label %8, label %7

7:                                                ; preds = %1
  store i1 true, ptr %2, align 1
  br label %10

8:                                                ; preds = %1
  %9 = call noundef zeroext i1 @_ZN11OpenImageIO6v3_1_08term_pvt10TermOutput6outputEv(ptr noundef nonnull align 8 dereferenceable(272) %4)
  call void @_ZN11OpenImageIO6v3_1_08term_pvt10TermOutput4initEv(ptr noundef nonnull align 8 dereferenceable(272) %4)
  store i1 true, ptr %2, align 1
  br label %10

10:                                               ; preds = %8, %7
  %11 = load i1, ptr %2, align 1
  ret i1 %11
}

; Function Attrs: mustprogress uwtable
define hidden noundef zeroext i1 @_ZN11OpenImageIO6v3_1_08term_pvt10TermOutput14write_scanlineEiiNS0_8TypeDescEPKvl(ptr noundef nonnull align 8 dereferenceable(272) %0, i32 noundef %1, i32 noundef %2, i64 %3, ptr noundef %4, i64 noundef %5) unnamed_addr #6 align 2 {
  %7 = alloca i1, align 1
  %8 = alloca %"struct.OpenImageIO::v3_1_0::TypeDesc", align 4
  %9 = alloca ptr, align 8
  %10 = alloca i32, align 4
  %11 = alloca i32, align 4
  %12 = alloca ptr, align 8
  %13 = alloca i64, align 8
  %14 = alloca %"struct.OpenImageIO::v3_1_0::ROI", align 4
  %15 = alloca %"class.OpenImageIO::v3_1_0::span", align 8
  %16 = alloca %"struct.OpenImageIO::v3_1_0::TypeDesc", align 4
  %17 = alloca %"struct.OpenImageIO::v3_1_0::ROI", align 8
  %18 = alloca %"struct.OpenImageIO::v3_1_0::TypeDesc", align 4
  %19 = alloca %"class.OpenImageIO::v3_1_0::span", align 8
  store i64 %3, ptr %8, align 4
  store ptr %0, ptr %9, align 8, !tbaa !8
  store i32 %1, ptr %10, align 4, !tbaa !24
  store i32 %2, ptr %11, align 4, !tbaa !24
  store ptr %4, ptr %12, align 8, !tbaa !100
  store i64 %5, ptr %13, align 8, !tbaa !85
  %20 = load ptr, ptr %9, align 8
  %21 = load i32, ptr %10, align 4, !tbaa !24
  %22 = getelementptr inbounds nuw %"class.OpenImageIO::v3_1_0::ImageOutput", ptr %20, i32 0, i32 1
  %23 = getelementptr inbounds nuw %"class.OpenImageIO::v3_1_0::ImageSpec", ptr %22, i32 0, i32 4
  %24 = load i32, ptr %23, align 8, !tbaa !101
  %25 = icmp sgt i32 %21, %24
  br i1 %25, label %26, label %28

26:                                               ; preds = %6
  call void @_ZNK11OpenImageIO6v3_1_011ImageOutput8errorfmtIJEEEvPKcDpRKT_(ptr noundef nonnull align 8 dereferenceable(184) %20, ptr noundef @.str.8)
  %27 = call noundef zeroext i1 @_ZN11OpenImageIO6v3_1_08term_pvt10TermOutput5closeEv(ptr noundef nonnull align 8 dereferenceable(272) %20)
  store i1 false, ptr %7, align 1
  br label %70

28:                                               ; preds = %6
  call void @llvm.lifetime.start.p0(i64 32, ptr %14) #3
  %29 = getelementptr inbounds nuw %"class.OpenImageIO::v3_1_0::ImageOutput", ptr %20, i32 0, i32 1
  %30 = getelementptr inbounds nuw %"class.OpenImageIO::v3_1_0::ImageSpec", ptr %29, i32 0, i32 0
  %31 = load i32, ptr %30, align 8, !tbaa !102
  %32 = getelementptr inbounds nuw %"class.OpenImageIO::v3_1_0::ImageOutput", ptr %20, i32 0, i32 1
  %33 = getelementptr inbounds nuw %"class.OpenImageIO::v3_1_0::ImageSpec", ptr %32, i32 0, i32 0
  %34 = load i32, ptr %33, align 8, !tbaa !102
  %35 = getelementptr inbounds nuw %"class.OpenImageIO::v3_1_0::ImageOutput", ptr %20, i32 0, i32 1
  %36 = getelementptr inbounds nuw %"class.OpenImageIO::v3_1_0::ImageSpec", ptr %35, i32 0, i32 3
  %37 = load i32, ptr %36, align 4, !tbaa !103
  %38 = add nsw i32 %34, %37
  %39 = load i32, ptr %10, align 4, !tbaa !24
  %40 = load i32, ptr %10, align 4, !tbaa !24
  %41 = add nsw i32 %40, 1
  %42 = load i32, ptr %11, align 4, !tbaa !24
  %43 = load i32, ptr %11, align 4, !tbaa !24
  %44 = add nsw i32 %43, 1
  %45 = getelementptr inbounds nuw %"class.OpenImageIO::v3_1_0::ImageOutput", ptr %20, i32 0, i32 1
  %46 = getelementptr inbounds nuw %"class.OpenImageIO::v3_1_0::ImageSpec", ptr %45, i32 0, i32 15
  %47 = load i32, ptr %46, align 4, !tbaa !104
  call void @_ZN11OpenImageIO6v3_1_03ROIC2Eiiiiiiii(ptr noundef nonnull align 4 dereferenceable(32) %14, i32 noundef %31, i32 noundef %38, i32 noundef %39, i32 noundef %41, i32 noundef %42, i32 noundef %44, i32 noundef 0, i32 noundef %47) #3
  call void @llvm.lifetime.start.p0(i64 16, ptr %15) #3
  %48 = load ptr, ptr %12, align 8, !tbaa !100
  call void @llvm.memcpy.p0.p0.i64(ptr align 4 %16, ptr align 4 %8, i64 8, i1 false), !tbaa.struct !83
  %49 = getelementptr inbounds nuw %"class.OpenImageIO::v3_1_0::ImageOutput", ptr %20, i32 0, i32 1
  %50 = getelementptr inbounds nuw %"class.OpenImageIO::v3_1_0::ImageSpec", ptr %49, i32 0, i32 15
  %51 = load i32, ptr %50, align 4, !tbaa !104
  %52 = call noundef i32 @_ZNK11OpenImageIO6v3_1_03ROI5widthEv(ptr noundef nonnull align 4 dereferenceable(32) %14) #3
  %53 = call noundef i32 @_ZNK11OpenImageIO6v3_1_03ROI6heightEv(ptr noundef nonnull align 4 dereferenceable(32) %14) #3
  %54 = call noundef i32 @_ZNK11OpenImageIO6v3_1_03ROI5depthEv(ptr noundef nonnull align 4 dereferenceable(32) %14) #3
  %55 = load i64, ptr %13, align 8, !tbaa !85
  %56 = load i64, ptr %16, align 4
  %57 = call { ptr, i64 } @_ZN11OpenImageIO6v3_1_017cspan_from_bufferEPKvNS0_8TypeDescEiiiilll(ptr noundef %48, i64 %56, i32 noundef %51, i32 noundef %52, i32 noundef %53, i32 noundef %54, i64 noundef %55, i64 noundef -9223372036854775808, i64 noundef -9223372036854775808)
  %58 = getelementptr inbounds nuw { ptr, i64 }, ptr %15, i32 0, i32 0
  %59 = extractvalue { ptr, i64 } %57, 0
  store ptr %59, ptr %58, align 8
  %60 = getelementptr inbounds nuw { ptr, i64 }, ptr %15, i32 0, i32 1
  %61 = extractvalue { ptr, i64 } %57, 1
  store i64 %61, ptr %60, align 8
  %62 = getelementptr inbounds nuw %"class.OpenImageIO::v3_1_0::term_pvt::TermOutput", ptr %20, i32 0, i32 1
  call void @llvm.memcpy.p0.p0.i64(ptr align 4 %17, ptr align 4 %14, i64 32, i1 false), !tbaa.struct !105
  call void @llvm.memcpy.p0.p0.i64(ptr align 4 %18, ptr align 4 %8, i64 8, i1 false), !tbaa.struct !83
  call void @llvm.memcpy.p0.p0.i64(ptr align 8 %19, ptr align 8 %15, i64 16, i1 false), !tbaa.struct !106
  %63 = load i64, ptr %13, align 8, !tbaa !85
  %64 = load i64, ptr %18, align 4
  %65 = getelementptr inbounds nuw { ptr, i64 }, ptr %19, i32 0, i32 0
  %66 = load ptr, ptr %65, align 8
  %67 = getelementptr inbounds nuw { ptr, i64 }, ptr %19, i32 0, i32 1
  %68 = load i64, ptr %67, align 8
  %69 = call noundef zeroext i1 @_ZN11OpenImageIO6v3_1_08ImageBuf10set_pixelsENS0_3ROIENS0_8TypeDescENS0_4spanIKSt4byteLm18446744073709551615EEEPKvlll(ptr noundef nonnull align 8 dereferenceable(16) %62, ptr noundef byval(%"struct.OpenImageIO::v3_1_0::ROI") align 8 %17, i64 %64, ptr %66, i64 %68, ptr noundef null, i64 noundef %63, i64 noundef -9223372036854775808, i64 noundef -9223372036854775808)
  store i1 %69, ptr %7, align 1
  call void @llvm.lifetime.end.p0(i64 16, ptr %15) #3
  call void @llvm.lifetime.end.p0(i64 32, ptr %14) #3
  br label %70

70:                                               ; preds = %28, %26
  %71 = load i1, ptr %7, align 1
  ret i1 %71
}