; Function Attrs: mustprogress uwtable
define hidden noundef zeroext i1 @_ZN11OpenImageIO6v3_1_08term_pvt10TermOutput14write_scanlineEiiNS0_8TypeDescEPKvl(ptr noundef nonnull align 8 dereferenceable(272) %0, i32 noundef %1, i32 noundef %2, i64 %3, ptr noundef %4, i64 noundef %5) unnamed_addr #6 align 2 personality ptr @__gxx_personality_v0 {
  %7 = alloca %"struct.OpenImageIO::v3_1_0::ROI", align 8
  %8 = getelementptr inbounds nuw i8, ptr %0, i64 24
  %9 = load i32, ptr %8, align 8, !tbaa !110
  %10 = icmp sgt i32 %1, %9
  br i1 %10, label %11, label %19

11:                                               ; preds = %6
  tail call void @_ZNK11OpenImageIO6v3_1_011ImageOutput8errorfmtIJEEEvPKcDpRKT_(ptr noundef nonnull align 8 dereferenceable(184) %0, ptr noundef nonnull @.str.8)
  %12 = getelementptr inbounds nuw i8, ptr %0, i64 184
  %13 = tail call noundef zeroext i1 @_ZNK11OpenImageIO6v3_1_08ImageBuf11initializedEv(ptr noundef nonnull align 8 dereferenceable(16) %12)
  br i1 %13, label %14, label %_ZN11OpenImageIO6v3_1_08term_pvt10TermOutput5closeEv.exit

14:                                               ; preds = %11
  %15 = tail call noundef zeroext i1 @_ZN11OpenImageIO6v3_1_08term_pvt10TermOutput6outputEv(ptr noundef nonnull align 8 dereferenceable(272) %0)
  tail call void @_ZN11OpenImageIO6v3_1_08ImageBuf5clearEv(ptr noundef nonnull align 8 dereferenceable(16) %12)
  %16 = getelementptr inbounds nuw i8, ptr %0, i64 232
  %17 = getelementptr inbounds nuw i8, ptr %0, i64 240
  store i64 0, ptr %17, align 8, !tbaa !42
  %18 = load ptr, ptr %16, align 8, !tbaa !40
  store i8 0, ptr %18, align 1, !tbaa !41
  br label %_ZN11OpenImageIO6v3_1_08term_pvt10TermOutput5closeEv.exit

19:                                               ; preds = %6
  %20 = getelementptr inbounds nuw i8, ptr %0, i64 8
  %21 = load i32, ptr %20, align 8, !tbaa !111
  %22 = getelementptr inbounds nuw i8, ptr %0, i64 20
  %23 = load i32, ptr %22, align 4, !tbaa !112
  %24 = add nsw i32 %23, %21
  %25 = add nsw i32 %1, 1
  %26 = add nsw i32 %2, 1
  %27 = getelementptr inbounds nuw i8, ptr %0, i64 68
  %28 = load i32, ptr %27, align 4, !tbaa !113
  %29 = tail call { ptr, i64 } @_ZN11OpenImageIO6v3_1_017cspan_from_bufferEPKvNS0_8TypeDescEiiiilll(ptr noundef %4, i64 %3, i32 noundef %28, i32 noundef %23, i32 noundef 1, i32 noundef 1, i64 noundef %5, i64 noundef -9223372036854775808, i64 noundef -9223372036854775808)
  %30 = extractvalue { ptr, i64 } %29, 0
  %31 = extractvalue { ptr, i64 } %29, 1
  %32 = getelementptr inbounds nuw i8, ptr %0, i64 184
  store i32 %21, ptr %7, align 8, !tbaa !114
  %.sroa.5.0..sroa_idx = getelementptr inbounds nuw i8, ptr %7, i64 4
  store i32 %24, ptr %.sroa.5.0..sroa_idx, align 4, !tbaa !114
  %.sroa.7.0..sroa_idx = getelementptr inbounds nuw i8, ptr %7, i64 8
  store i32 %1, ptr %.sroa.7.0..sroa_idx, align 8, !tbaa !114
  %.sroa.9.0..sroa_idx = getelementptr inbounds nuw i8, ptr %7, i64 12
  store i32 %25, ptr %.sroa.9.0..sroa_idx, align 4, !tbaa !114
  %.sroa.11.0..sroa_idx = getelementptr inbounds nuw i8, ptr %7, i64 16
  store i32 %2, ptr %.sroa.11.0..sroa_idx, align 8, !tbaa !114
  %.sroa.13.0..sroa_idx = getelementptr inbounds nuw i8, ptr %7, i64 20
  store i32 %26, ptr %.sroa.13.0..sroa_idx, align 4, !tbaa !114
  %.sroa.15.0..sroa_idx = getelementptr inbounds nuw i8, ptr %7, i64 24
  store i32 0, ptr %.sroa.15.0..sroa_idx, align 8, !tbaa !114
  %.sroa.16.0..sroa_idx = getelementptr inbounds nuw i8, ptr %7, i64 28
  store i32 %28, ptr %.sroa.16.0..sroa_idx, align 4, !tbaa !114
  %33 = tail call noundef zeroext i1 @_ZN11OpenImageIO6v3_1_08ImageBuf10set_pixelsENS0_3ROIENS0_8TypeDescENS0_4spanIKSt4byteLm18446744073709551615EEEPKvlll(ptr noundef nonnull align 8 dereferenceable(16) %32, ptr noundef nonnull byval(%"struct.OpenImageIO::v3_1_0::ROI") align 8 %7, i64 %3, ptr %30, i64 %31, ptr noundef null, i64 noundef %5, i64 noundef -9223372036854775808, i64 noundef -9223372036854775808)
  br label %_ZN11OpenImageIO6v3_1_08term_pvt10TermOutput5closeEv.exit

_ZN11OpenImageIO6v3_1_08term_pvt10TermOutput5closeEv.exit: ; preds = %14, %11, %19
  %.0 = phi i1 [ %33, %19 ], [ false, %11 ], [ false, %14 ]
  ret i1 %.0
}